(dp0
S'goal'
p1
(dp2
I1
I85
sI2
I85
sI3
I85
sI4
I85
sI5
I85
sI6
I85
sI8
I85
sI9
I85
sI10
I85
sI11
I85
sI12
I85
sI15
I85
sI16
I85
ssS'step'
p3
(dp4
I1
I85
sI5
I85
ssS'task'
p5
(dp6
I1
I85
sI2
I85
sI3
I85
sI4
I85
sI5
I85
sI6
I85
sI7
I85
sI9
I85
sI10
I85
sI11
I85
sI12
I85
sI13
I85
sI14
I85
sI15
I85
sI16
I85
sI17
I85
sI18
I85
sI19
I85
sI20
I85
sI21
I85
sI22
I85
sI23
I85
sI24
I85
sI25
I85
sI26
I85
sI27
I85
sI28
I85
sI29
I85
sI30
I85
sI31
I85
sI32
I85
sI33
I85
sI34
I85
sI35
I85
sI36
I85
sI37
I85
sI38
I85
sI39
I85
sI40
I85
sI41
I85
sI42
I85
sI43
I85
sI44
I85
sI45
I85
sI46
I85
sI47
I85
sI48
I85
sI49
I85
sI50
I85
sI51
I85
sI52
I85
sI53
I85
sI54
I85
sI55
I85
sI57
I85
sI58
I85
sI59
I85
sI60
I85
sI62
I85
sI63
I85
sI64
I85
sI65
I85
sI66
I85
sI67
I85
sI68
I85
sI69
I85
sI70
I85
sI71
I85
sI73
I85
sI74
I85
sI75
I85
sI76
I85
sI77
I85
sI78
I85
sI79
I85
sI80
I85
sI81
I85
sI82
I85
sI83
I85
sI84
I85
ssS'idea'
p7
(dp8
I1
I85
sI4
I85
sI6
I85
ssS'plan'
p9
(dp10
I1
I85
ss.